target datalayout = "e-m:e-p270:32:32-p271:32:32-p272:64:64-i64:64-i128:128-f80:128-n8:16:32:64-S128"
target triple = "x86_64-pc-linux-gnu"

%struct.buf_mem_st = type { i64, ptr, i64, i64 }

@.str.7 = private unnamed_addr constant [35 x i8] c"../openssl/test/bio_memleak_test.c\00", align 1
@.str.43 = private unnamed_addr constant [2 x i8] c"1\00", align 1
@test_bio_i2d_ASN1_mime.str = internal constant [15 x i8] c"BIO mime test\0A\00", align 1
@.str.44 = private unnamed_addr constant [27 x i8] c"bio = BIO_new(BIO_s_mem())\00", align 1
@.str.45 = private unnamed_addr constant [27 x i8] c"out = BIO_new(BIO_s_mem())\00", align 1
@.str.46 = private unnamed_addr constant [17 x i8] c"p7 = PKCS7_new()\00", align 1
@.str.47 = private unnamed_addr constant [35 x i8] c"PKCS7_set_type(p7, NID_pkcs7_data)\00", align 1
@error_callback_fired = internal global i32 0, align 4
@.str.48 = private unnamed_addr constant [100 x i8] c"i2d_ASN1_bio_stream(out, (ASN1_VALUE*) p7, bio, SMIME_STREAM | SMIME_BINARY, ASN1_ITEM_rptr(PKCS7))\00", align 1
@.str.49 = private unnamed_addr constant [21 x i8] c"error_callback_fired\00", align 1

; Function Attrs: nounwind uwtable
define internal i32 @test_bio_i2d_ASN1_mime() #0 {
  %1 = alloca i32, align 4
  %2 = alloca ptr, align 8
  %3 = alloca ptr, align 8
  %4 = alloca %struct.buf_mem_st, align 8
  %5 = alloca ptr, align 8
  call void @llvm.lifetime.start.p0(i64 4, ptr %1) #3
  store i32 0, ptr %1, align 4, !tbaa !4
  call void @llvm.lifetime.start.p0(i64 8, ptr %2) #3
  store ptr null, ptr %2, align 8, !tbaa !8
  call void @llvm.lifetime.start.p0(i64 8, ptr %3) #3
  store ptr null, ptr %3, align 8, !tbaa !8
  call void @llvm.lifetime.start.p0(i64 32, ptr %4) #3
  call void @llvm.lifetime.start.p0(i64 8, ptr %5) #3
  store ptr null, ptr %5, align 8, !tbaa !19
  %6 = call ptr @BIO_s_mem()
  %7 = call ptr @BIO_new(ptr noundef %6)
  store ptr %7, ptr %2, align 8, !tbaa !8
  %8 = call i32 @test_ptr(ptr noundef @.str.7, i32 noundef 245, ptr noundef @.str.44, ptr noundef %7)
  %9 = icmp ne i32 %8, 0
  br i1 %9, label %11, label %10

10:                                               ; preds = %0
  br label %56

11:                                               ; preds = %0
  %12 = getelementptr inbounds nuw %struct.buf_mem_st, ptr %4, i32 0, i32 0
  store i64 15, ptr %12, align 8, !tbaa !11
  %13 = getelementptr inbounds nuw %struct.buf_mem_st, ptr %4, i32 0, i32 1
  store ptr @test_bio_i2d_ASN1_mime.str, ptr %13, align 8, !tbaa !15
  %14 = getelementptr inbounds nuw %struct.buf_mem_st, ptr %4, i32 0, i32 0
  %15 = load i64, ptr %14, align 8, !tbaa !11
  %16 = getelementptr inbounds nuw %struct.buf_mem_st, ptr %4, i32 0, i32 2
  store i64 %15, ptr %16, align 8, !tbaa !16
  %17 = load ptr, ptr %2, align 8, !tbaa !8
  %18 = call i64 @BIO_ctrl(ptr noundef %17, i32 noundef 114, i64 noundef 0, ptr noundef %4)
  %19 = load ptr, ptr %2, align 8, !tbaa !8
  call void @BIO_set_flags(ptr noundef %19, i32 noundef 512)
  %20 = load ptr, ptr %2, align 8, !tbaa !8
  call void @BIO_set_callback_ex(ptr noundef %20, ptr noundef @BIO_error_callback)
  %21 = call ptr @BIO_s_mem()
  %22 = call ptr @BIO_new(ptr noundef %21)
  store ptr %22, ptr %3, align 8, !tbaa !8
  %23 = call i32 @test_ptr(ptr noundef @.str.7, i32 noundef 255, ptr noundef @.str.45, ptr noundef %22)
  %24 = icmp ne i32 %23, 0
  br i1 %24, label %26, label %25

25:                                               ; preds = %11
  br label %56

26:                                               ; preds = %11
  %27 = call ptr @PKCS7_new()
  store ptr %27, ptr %5, align 8, !tbaa !19
  %28 = call i32 @test_ptr(ptr noundef @.str.7, i32 noundef 257, ptr noundef @.str.46, ptr noundef %27)
  %29 = icmp ne i32 %28, 0
  br i1 %29, label %31, label %30

30:                                               ; preds = %26
  br label %56

31:                                               ; preds = %26
  %32 = load ptr, ptr %5, align 8, !tbaa !19
  %33 = call i32 @PKCS7_set_type(ptr noundef %32, i32 noundef 21)
  %34 = icmp ne i32 %33, 0
  %35 = zext i1 %34 to i32
  %36 = call i32 @test_true(ptr noundef @.str.7, i32 noundef 259, ptr noundef @.str.47, i32 noundef %35)
  %37 = icmp ne i32 %36, 0
  br i1 %37, label %39, label %38

38:                                               ; preds = %31
  br label %56

39:                                               ; preds = %31
  store i32 0, ptr @error_callback_fired, align 4, !tbaa !4
  %40 = load ptr, ptr %3, align 8, !tbaa !8
  %41 = load ptr, ptr %5, align 8, !tbaa !19
  %42 = load ptr, ptr %2, align 8, !tbaa !8
  %43 = call ptr @PKCS7_it()
  %44 = call i32 @i2d_ASN1_bio_stream(ptr noundef %40, ptr noundef %41, ptr noundef %42, i32 noundef 4224, ptr noundef %43)
  %45 = icmp ne i32 %44, 0
  %46 = zext i1 %45 to i32
  %47 = call i32 @test_false(ptr noundef @.str.7, i32 noundef 266, ptr noundef @.str.48, i32 noundef %46)
  %48 = icmp ne i32 %47, 0
  br i1 %48, label %50, label %49

49:                                               ; preds = %39
  br label %56

50:                                               ; preds = %39
  %51 = load i32, ptr @error_callback_fired, align 4, !tbaa !4
  %52 = call i32 @test_int_eq(ptr noundef @.str.7, i32 noundef 269, ptr noundef @.str.49, ptr noundef @.str.43, i32 noundef %51, i32 noundef 1)
  %53 = icmp ne i32 %52, 0
  br i1 %53, label %55, label %54

54:                                               ; preds = %50
  br label %56

55:                                               ; preds = %50
  store i32 1, ptr %1, align 4, !tbaa !4
  br label %56

56:                                               ; preds = %55, %54, %49, %38, %30, %25, %10
  %57 = load ptr, ptr %2, align 8, !tbaa !8
  %58 = call i32 @BIO_free(ptr noundef %57)
  %59 = load ptr, ptr %3, align 8, !tbaa !8
  %60 = call i32 @BIO_free(ptr noundef %59)
  %61 = load ptr, ptr %5, align 8, !tbaa !19
  call void @PKCS7_free(ptr noundef %61)
  %62 = load i32, ptr %1, align 4, !tbaa !4
  call void @llvm.lifetime.end.p0(i64 8, ptr %5) #3
  call void @llvm.lifetime.end.p0(i64 32, ptr %4) #3
  call void @llvm.lifetime.end.p0(i64 8, ptr %3) #3
  call void @llvm.lifetime.end.p0(i64 8, ptr %2) #3
  call void @llvm.lifetime.end.p0(i64 4, ptr %1) #3
  ret i32 %62
}