; Function Attrs: nounwind uwtable
define internal range(i32 0, 2) i32 @test_bio_i2d_ASN1_mime() #0 {
  %1 = alloca %struct.buf_mem_st, align 8
  call void @llvm.lifetime.start.p0(i64 32, ptr nonnull %1) #4
  %2 = tail call ptr @BIO_s_mem() #4
  %3 = tail call ptr @BIO_new(ptr noundef %2) #4
  %4 = tail call i32 @test_ptr(ptr noundef nonnull @.str.7, i32 noundef 245, ptr noundef nonnull @.str.44, ptr noundef %3) #4
  %.not = icmp eq i32 %4, 0
  br i1 %.not, label %29, label %5

5:                                                ; preds = %0
  store i64 15, ptr %1, align 8, !tbaa !4
  %6 = getelementptr inbounds nuw i8, ptr %1, i64 8
  store ptr @test_bio_i2d_ASN1_mime.str, ptr %6, align 8, !tbaa !11
  %7 = getelementptr inbounds nuw i8, ptr %1, i64 16
  store i64 15, ptr %7, align 8, !tbaa !12
  %8 = call i64 @BIO_ctrl(ptr noundef %3, i32 noundef 114, i64 noundef 0, ptr noundef nonnull %1) #4
  call void @BIO_set_flags(ptr noundef %3, i32 noundef 512) #4
  call void @BIO_set_callback_ex(ptr noundef %3, ptr noundef nonnull @BIO_error_callback) #4
  %9 = call ptr @BIO_s_mem() #4
  %10 = call ptr @BIO_new(ptr noundef %9) #4
  %11 = call i32 @test_ptr(ptr noundef nonnull @.str.7, i32 noundef 255, ptr noundef nonnull @.str.45, ptr noundef %10) #4
  %.not12 = icmp eq i32 %11, 0
  br i1 %.not12, label %29, label %12

12:                                               ; preds = %5
  %13 = call ptr @PKCS7_new() #4
  %14 = call i32 @test_ptr(ptr noundef nonnull @.str.7, i32 noundef 257, ptr noundef nonnull @.str.46, ptr noundef %13) #4
  %.not13 = icmp eq i32 %14, 0
  br i1 %.not13, label %29, label %15

15:                                               ; preds = %12
  %16 = call i32 @PKCS7_set_type(ptr noundef %13, i32 noundef 21) #4
  %17 = icmp ne i32 %16, 0
  %18 = zext i1 %17 to i32
  %19 = call i32 @test_true(ptr noundef nonnull @.str.7, i32 noundef 259, ptr noundef nonnull @.str.47, i32 noundef %18) #4
  %.not14 = icmp eq i32 %19, 0
  br i1 %.not14, label %29, label %20

20:                                               ; preds = %15
  store i1 false, ptr @error_callback_fired, align 4
  %21 = call ptr @PKCS7_it() #4
  %22 = call i32 @i2d_ASN1_bio_stream(ptr noundef %10, ptr noundef %13, ptr noundef %3, i32 noundef 4224, ptr noundef %21) #4
  %23 = icmp ne i32 %22, 0
  %24 = zext i1 %23 to i32
  %25 = call i32 @test_false(ptr noundef nonnull @.str.7, i32 noundef 266, ptr noundef nonnull @.str.48, i32 noundef %24) #4
  %.not15 = icmp eq i32 %25, 0
  br i1 %.not15, label %29, label %26

26:                                               ; preds = %20
  %.b = load i1, ptr @error_callback_fired, align 4
  %27 = zext i1 %.b to i32
  %28 = call i32 @test_int_eq(ptr noundef nonnull @.str.7, i32 noundef 269, ptr noundef nonnull @.str.49, ptr noundef nonnull @.str.43, i32 noundef %27, i32 noundef 1) #4
  %.not16 = icmp ne i32 %28, 0
  %spec.select = zext i1 %.not16 to i32
  br label %29

29:                                               ; preds = %26, %20, %15, %12, %5, %0
  %.011 = phi i32 [ 0, %20 ], [ 0, %15 ], [ 0, %12 ], [ 0, %5 ], [ 0, %0 ], [ %spec.select, %26 ]
  %.010 = phi ptr [ %10, %20 ], [ %10, %15 ], [ %10, %12 ], [ %10, %5 ], [ null, %0 ], [ %10, %26 ]
  %.0 = phi ptr [ %13, %20 ], [ %13, %15 ], [ %13, %12 ], [ null, %5 ], [ null, %0 ], [ %13, %26 ]
  %30 = call i32 @BIO_free(ptr noundef %3) #4
  %31 = call i32 @BIO_free(ptr noundef %.010) #4
  call void @PKCS7_free(ptr noundef %.0) #4
  call void @llvm.lifetime.end.p0(i64 32, ptr nonnull %1) #4
  ret i32 %.011
}